; Function Attrs: mustprogress nounwind uwtable
define hidden void @_ZN11DCmdFactory29push_jmx_notification_requestEv() local_unnamed_addr #2 align 2 {
  %1 = load ptr, ptr @Notification_lock, align 8
  %.not.i.i = icmp eq ptr %1, null
  br i1 %.not.i.i, label %_ZN11MutexLockerC2EP5MutexNS0_18SafepointCheckFlagE.exit.thread, label %2

_ZN11MutexLockerC2EP5MutexNS0_18SafepointCheckFlagE.exit.thread: ; preds = %0
  store i8 1, ptr @_ZN11DCmdFactory29_has_pending_jmx_notificationE, align 1
  tail call void @_ZN7Monitor10notify_allEv(ptr noundef nonnull align 8 dereferenceable(104) null) #19
  br label %_ZN11MutexLockerD2Ev.exit

2:                                                ; preds = %0
  tail call void @_ZN5Mutex28lock_without_safepoint_checkEv(ptr noundef nonnull align 8 dereferenceable(104) %1) #19
  store i8 1, ptr @_ZN11DCmdFactory29_has_pending_jmx_notificationE, align 1
  %3 = load ptr, ptr @Notification_lock, align 8
  tail call void @_ZN7Monitor10notify_allEv(ptr noundef nonnull align 8 dereferenceable(104) %3) #19
  tail call void @_ZN5Mutex6unlockEv(ptr noundef nonnull align 8 dereferenceable(104) %1) #19
  br label %_ZN11MutexLockerD2Ev.exit

_ZN11MutexLockerD2Ev.exit:                        ; preds = %_ZN11MutexLockerC2EP5MutexNS0_18SafepointCheckFlagE.exit.thread, %2
  ret void
}